
firmware.elf:     file format elf32-littleriscv


Disassembly of section .instr:

00000000 <_start>:
   0:	20000137          	lui	sp,0x20000
   4:	08010113          	addi	sp,sp,128 # 20000080 <main+0x20000074>
   8:	0040006f          	j	c <main>

0000000c <main>:
   c:	fe010113          	addi	sp,sp,-32
  10:	00812e23          	sw	s0,28(sp)
  14:	02010413          	addi	s0,sp,32
  18:	fe042423          	sw	zero,-24(s0)
  1c:	fe042623          	sw	zero,-20(s0)
  20:	fec42783          	lw	a5,-20(s0)
  24:	0077f793          	andi	a5,a5,7
  28:	00079863          	bnez	a5,38 <main+0x2c>
  2c:	fe842783          	lw	a5,-24(s0)
  30:	0007a023          	sw	zero,0(a5)
  34:	0fc0006f          	j	130 <main+0x124>
  38:	fec42783          	lw	a5,-20(s0)
  3c:	0077f713          	andi	a4,a5,7
  40:	00100793          	li	a5,1
  44:	00f71c63          	bne	a4,a5,5c <main+0x50>
  48:	fe842783          	lw	a5,-24(s0)
  4c:	00001737          	lui	a4,0x1
  50:	11170713          	addi	a4,a4,273 # 1111 <main+0x1105>
  54:	00e7a023          	sw	a4,0(a5)
  58:	0d80006f          	j	130 <main+0x124>
  5c:	fec42783          	lw	a5,-20(s0)
  60:	0077f713          	andi	a4,a5,7
  64:	00200793          	li	a5,2
  68:	00f71c63          	bne	a4,a5,80 <main+0x74>
  6c:	fe842783          	lw	a5,-24(s0)
  70:	00002737          	lui	a4,0x2
  74:	22270713          	addi	a4,a4,546 # 2222 <main+0x2216>
  78:	00e7a023          	sw	a4,0(a5)
  7c:	0b40006f          	j	130 <main+0x124>
  80:	fec42783          	lw	a5,-20(s0)
  84:	0077f713          	andi	a4,a5,7
  88:	00300793          	li	a5,3
  8c:	00f71c63          	bne	a4,a5,a4 <main+0x98>
  90:	fe842783          	lw	a5,-24(s0)
  94:	00003737          	lui	a4,0x3
  98:	33370713          	addi	a4,a4,819 # 3333 <main+0x3327>
  9c:	00e7a023          	sw	a4,0(a5)
  a0:	0900006f          	j	130 <main+0x124>
  a4:	fec42783          	lw	a5,-20(s0)
  a8:	0077f713          	andi	a4,a5,7
  ac:	00400793          	li	a5,4
  b0:	00f71c63          	bne	a4,a5,c8 <main+0xbc>
  b4:	fe842783          	lw	a5,-24(s0)
  b8:	00004737          	lui	a4,0x4
  bc:	44470713          	addi	a4,a4,1092 # 4444 <main+0x4438>
  c0:	00e7a023          	sw	a4,0(a5)
  c4:	06c0006f          	j	130 <main+0x124>
  c8:	fec42783          	lw	a5,-20(s0)
  cc:	0077f713          	andi	a4,a5,7
  d0:	00500793          	li	a5,5
  d4:	00f71c63          	bne	a4,a5,ec <main+0xe0>
  d8:	fe842783          	lw	a5,-24(s0)
  dc:	00005737          	lui	a4,0x5
  e0:	55570713          	addi	a4,a4,1365 # 5555 <main+0x5549>
  e4:	00e7a023          	sw	a4,0(a5)
  e8:	0480006f          	j	130 <main+0x124>
  ec:	fec42783          	lw	a5,-20(s0)
  f0:	0077f713          	andi	a4,a5,7
  f4:	00600793          	li	a5,6
  f8:	00f71c63          	bne	a4,a5,110 <main+0x104>
  fc:	fe842783          	lw	a5,-24(s0)
 100:	00006737          	lui	a4,0x6
 104:	66670713          	addi	a4,a4,1638 # 6666 <main+0x665a>
 108:	00e7a023          	sw	a4,0(a5)
 10c:	0240006f          	j	130 <main+0x124>
 110:	fec42783          	lw	a5,-20(s0)
 114:	0077f713          	andi	a4,a5,7
 118:	00700793          	li	a5,7
 11c:	00f71a63          	bne	a4,a5,130 <main+0x124>
 120:	fe842783          	lw	a5,-24(s0)
 124:	00007737          	lui	a4,0x7
 128:	77770713          	addi	a4,a4,1911 # 7777 <main+0x776b>
 12c:	00e7a023          	sw	a4,0(a5)
 130:	fe042223          	sw	zero,-28(s0)
 134:	0100006f          	j	144 <main+0x138>
 138:	fe442783          	lw	a5,-28(s0)
 13c:	00178793          	addi	a5,a5,1
 140:	fef42223          	sw	a5,-28(s0)
 144:	fe442703          	lw	a4,-28(s0)
 148:	0c700793          	li	a5,199
 14c:	fee7d6e3          	bge	a5,a4,138 <main+0x12c>
 150:	fec42783          	lw	a5,-20(s0)
 154:	00178793          	addi	a5,a5,1
 158:	fef42623          	sw	a5,-20(s0)
 15c:	ec5ff06f          	j	20 <main+0x14>

Disassembly of section .riscv.attributes:

00000000 <.riscv.attributes>:
   0:	1b41                	.2byte	0x1b41
   2:	0000                	.2byte	0x0
   4:	7200                	.2byte	0x7200
   6:	7369                	.2byte	0x7369
   8:	01007663          	bgeu	zero,a6,14 <main+0x8>
   c:	0011                	.2byte	0x11
   e:	0000                	.2byte	0x0
  10:	1004                	.2byte	0x1004
  12:	7205                	.2byte	0x7205
  14:	3376                	.2byte	0x3376
  16:	6932                	.2byte	0x6932
  18:	7032                	.2byte	0x7032
  1a:	0030                	.2byte	0x30

Disassembly of section .comment:

00000000 <.comment>:
   0:	3a434347          	.4byte	0x3a434347
   4:	2820                	.2byte	0x2820
   6:	29554e47          	.4byte	0x29554e47
   a:	3120                	.2byte	0x3120
   c:	2e31                	.2byte	0x2e31
   e:	00302e33          	sgtz	t3,gp
